; Function Attrs: nounwind uwtable
define i32 @CVodeInitBS(ptr noundef %0, i32 noundef %1, ptr noundef %2, double noundef %3, ptr noundef %4) local_unnamed_addr #0 {
  %6 = icmp eq ptr %0, null
  br i1 %6, label %7, label %8

7:                                                ; preds = %5
  tail call void (ptr, i32, ptr, ptr, ptr, ...) @cvProcessError(ptr noundef null, i32 noundef -21, ptr noundef nonnull @.str, ptr noundef nonnull @.str.15, ptr noundef nonnull @.str.2) #8
  br label %33

8:                                                ; preds = %5
  %9 = getelementptr inbounds nuw i8, ptr %0, i64 2200
  %10 = load i32, ptr %9, align 8, !tbaa !47
  %11 = icmp eq i32 %10, 0
  br i1 %11, label %12, label %13

12:                                               ; preds = %8
  tail call void (ptr, i32, ptr, ptr, ptr, ...) @cvProcessError(ptr noundef nonnull %0, i32 noundef -101, ptr noundef nonnull @.str, ptr noundef nonnull @.str.15, ptr noundef nonnull @.str.7) #8
  br label %33

13:                                               ; preds = %8
  %14 = getelementptr inbounds nuw i8, ptr %0, i64 2192
  %15 = load ptr, ptr %14, align 8, !tbaa !3
  %16 = getelementptr inbounds nuw i8, ptr %15, i64 40
  %17 = load i32, ptr %16, align 8, !tbaa !42
  %.not = icmp slt i32 %1, %17
  br i1 %.not, label %19, label %18

18:                                               ; preds = %13
  tail call void (ptr, i32, ptr, ptr, ptr, ...) @cvProcessError(ptr noundef nonnull %0, i32 noundef -22, ptr noundef nonnull @.str, ptr noundef nonnull @.str.15, ptr noundef nonnull @.str.14) #8
  br label %33

19:                                               ; preds = %13
  %20 = getelementptr inbounds nuw i8, ptr %15, i64 32
  br label %.lr.ph

.lr.ph:                                           ; preds = %.lr.ph, %19
  %.028.sink.in = phi ptr [ %23, %.lr.ph ], [ %20, %19 ]
  %.028.sink = load ptr, ptr %.028.sink.in, align 8, !tbaa !122, !nonnull !204, !noundef !204
  %21 = load i32, ptr %.028.sink, align 8, !tbaa !203
  %22 = icmp eq i32 %1, %21
  %23 = getelementptr inbounds nuw i8, ptr %.028.sink, i64 120
  br i1 %22, label %._crit_edge, label %.lr.ph

._crit_edge:                                      ; preds = %.lr.ph
  %24 = getelementptr inbounds nuw i8, ptr %.028.sink, i64 16
  %25 = load ptr, ptr %24, align 8, !tbaa !123
  %26 = tail call i32 @CVodeInit(ptr noundef %25, ptr noundef nonnull @CVArhs, double noundef %3, ptr noundef %4) #8
  %.not33 = icmp eq i32 %26, 0
  br i1 %.not33, label %27, label %33

27:                                               ; preds = %._crit_edge
  %28 = getelementptr inbounds nuw i8, ptr %.028.sink, i64 24
  store i32 1, ptr %28, align 8, !tbaa !205
  %29 = getelementptr inbounds nuw i8, ptr %.028.sink, i64 40
  store ptr %2, ptr %29, align 8, !tbaa !208
  %30 = getelementptr inbounds nuw i8, ptr %.028.sink, i64 8
  store double %3, ptr %30, align 8, !tbaa !207
  %31 = tail call ptr @N_VClone(ptr noundef %4) #8
  %32 = getelementptr inbounds nuw i8, ptr %.028.sink, i64 112
  store ptr %31, ptr %32, align 8, !tbaa !127
  tail call void @N_VScale(double noundef 1.000000e+00, ptr noundef %4, ptr noundef %31) #8
  br label %33

33:                                               ; preds = %._crit_edge, %27, %18, %12, %7
  %.0 = phi i32 [ -21, %7 ], [ -101, %12 ], [ -22, %18 ], [ 0, %27 ], [ %26, %._crit_edge ]
  ret i32 %.0
}